; ModuleID = '22/151.c'
source_filename = "22/151.c"
target datalayout = "e-m:e-p270:32:32-p271:32:32-p272:64:64-i64:64-f80:128-n8:16:32:64-S128"
target triple = "x86_64-pc-linux-gnu"

@.str = private unnamed_addr constant [3 x i8] c"%s\00", align 1
@.str.1 = private unnamed_addr constant [3 x i8] c"No\00", align 1
@.str.2 = private unnamed_addr constant [4 x i8] c"246\00", align 1
@.str.3 = private unnamed_addr constant [3 x i8] c"%d\00", align 1

; Function Attrs: noinline nounwind uwtable
define dso_local void @main() #0 {
  %1 = alloca i32, align 4
  %2 = alloca i32, align 4
  %3 = alloca i32, align 4
  %4 = alloca i32, align 4
  %5 = alloca [1000 x i32], align 16
  %6 = alloca [1000 x i8], align 16
  %7 = bitcast [1000 x i32]* %5 to i8*
  call void @llvm.memset.p0i8.i64(i8* align 16 %7, i8 0, i64 4000, i1 false)
  %8 = getelementptr inbounds [1000 x i8], [1000 x i8]* %6, i64 0, i64 0
  %9 = call i32 (i8*, ...) @__isoc99_scanf(i8* getelementptr inbounds ([3 x i8], [3 x i8]* @.str, i64 0, i64 0), i8* %8)
  %10 = getelementptr inbounds [1000 x i8], [1000 x i8]* %6, i64 0, i64 0
  %11 = call i64 @strlen(i8* %10) #4
  %12 = trunc i64 %11 to i32
  store i32 %12, i32* %3, align 4
  store i32 0, i32* %4, align 4
  store i32 0, i32* %2, align 4
  br label %13

13:                                               ; preds = %54, %0
  %14 = load i32, i32* %2, align 4
  %15 = load i32, i32* %3, align 4
  %16 = sub nsw i32 %15, 1
  %17 = icmp sle i32 %14, %16
  br i1 %17, label %18, label %59

18:                                               ; preds = %13
  br label %19

19:                                               ; preds = %35, %18
  %20 = load i32, i32* %2, align 4
  %21 = sext i32 %20 to i64
  %22 = getelementptr inbounds [1000 x i8], [1000 x i8]* %6, i64 0, i64 %21
  %23 = load i8, i8* %22, align 1
  %24 = sext i8 %23 to i32
  %25 = icmp sge i32 %24, 48
  br i1 %25, label %26, label %33

26:                                               ; preds = %19
  %27 = load i32, i32* %2, align 4
  %28 = sext i32 %27 to i64
  %29 = getelementptr inbounds [1000 x i8], [1000 x i8]* %6, i64 0, i64 %28
  %30 = load i8, i8* %29, align 1
  %31 = sext i8 %30 to i32
  %32 = icmp sle i32 %31, 57
  br label %33

33:                                               ; preds = %26, %19
  %34 = phi i1 [ false, %19 ], [ %32, %26 ]
  br i1 %34, label %35, label %54

35:                                               ; preds = %33
  %36 = load i32, i32* %2, align 4
  %37 = sext i32 %36 to i64
  %38 = getelementptr inbounds [1000 x i8], [1000 x i8]* %6, i64 0, i64 %37
  %39 = load i8, i8* %38, align 1
  %40 = sext i8 %39 to i32
  %41 = sub nsw i32 %40, 48
  store i32 %41, i32* %1, align 4
  %42 = load i32, i32* %4, align 4
  %43 = sext i32 %42 to i64
  %44 = getelementptr inbounds [1000 x i32], [1000 x i32]* %5, i64 0, i64 %43
  %45 = load i32, i32* %44, align 4
  %46 = mul nsw i32 %45, 10
  %47 = load i32, i32* %1, align 4
  %48 = add nsw i32 %46, %47
  %49 = load i32, i32* %4, align 4
  %50 = sext i32 %49 to i64
  %51 = getelementptr inbounds [1000 x i32], [1000 x i32]* %5, i64 0, i64 %50
  store i32 %48, i32* %51, align 4
  %52 = load i32, i32* %2, align 4
  %53 = add nsw i32 %52, 1
  store i32 %53, i32* %2, align 4
  br label %19

54:                                               ; preds = %33
  %55 = load i32, i32* %4, align 4
  %56 = add nsw i32 %55, 1
  store i32 %56, i32* %4, align 4
  %57 = load i32, i32* %2, align 4
  %58 = add nsw i32 %57, 1
  store i32 %58, i32* %2, align 4
  br label %13

59:                                               ; preds = %13
  store i32 0, i32* %2, align 4
  br label %60

60:                                               ; preds = %66, %59
  %61 = load i32, i32* %2, align 4
  %62 = sext i32 %61 to i64
  %63 = getelementptr inbounds [1000 x i32], [1000 x i32]* %5, i64 0, i64 %62
  %64 = load i32, i32* %63, align 4
  %65 = icmp ne i32 %64, 0
  br i1 %65, label %66, label %69

66:                                               ; preds = %60
  %67 = load i32, i32* %2, align 4
  %68 = add nsw i32 %67, 1
  store i32 %68, i32* %2, align 4
  br label %60

69:                                               ; preds = %60
  store i32 0, i32* %1, align 4
  br label %70

70:                                               ; preds = %110, %69
  %71 = load i32, i32* %1, align 4
  %72 = load i32, i32* %2, align 4
  %73 = icmp slt i32 %71, %72
  br i1 %73, label %74, label %113

74:                                               ; preds = %70
  store i32 0, i32* %3, align 4
  br label %75

75:                                               ; preds = %106, %74
  %76 = load i32, i32* %3, align 4
  %77 = load i32, i32* %2, align 4
  %78 = icmp slt i32 %76, %77
  br i1 %78, label %79, label %109

79:                                               ; preds = %75
  %80 = load i32, i32* %1, align 4
  %81 = sext i32 %80 to i64
  %82 = getelementptr inbounds [1000 x i32], [1000 x i32]* %5, i64 0, i64 %81
  %83 = load i32, i32* %82, align 4
  %84 = load i32, i32* %3, align 4
  %85 = sext i32 %84 to i64
  %86 = getelementptr inbounds [1000 x i32], [1000 x i32]* %5, i64 0, i64 %85
  %87 = load i32, i32* %86, align 4
  %88 = icmp sgt i32 %83, %87
  br i1 %88, label %89, label %105

89:                                               ; preds = %79
  %90 = load i32, i32* %1, align 4
  %91 = sext i32 %90 to i64
  %92 = getelementptr inbounds [1000 x i32], [1000 x i32]* %5, i64 0, i64 %91
  %93 = load i32, i32* %92, align 4
  store i32 %93, i32* %4, align 4
  %94 = load i32, i32* %3, align 4
  %95 = sext i32 %94 to i64
  %96 = getelementptr inbounds [1000 x i32], [1000 x i32]* %5, i64 0, i64 %95
  %97 = load i32, i32* %96, align 4
  %98 = load i32, i32* %1, align 4
  %99 = sext i32 %98 to i64
  %100 = getelementptr inbounds [1000 x i32], [1000 x i32]* %5, i64 0, i64 %99
  store i32 %97, i32* %100, align 4
  %101 = load i32, i32* %4, align 4
  %102 = load i32, i32* %3, align 4
  %103 = sext i32 %102 to i64
  %104 = getelementptr inbounds [1000 x i32], [1000 x i32]* %5, i64 0, i64 %103
  store i32 %101, i32* %104, align 4
  br label %105

105:                                              ; preds = %89, %79
  br label %106

106:                                              ; preds = %105
  %107 = load i32, i32* %3, align 4
  %108 = add nsw i32 %107, 1
  store i32 %108, i32* %3, align 4
  br label %75

109:                                              ; preds = %75
  br label %110

110:                                              ; preds = %109
  %111 = load i32, i32* %1, align 4
  %112 = add nsw i32 %111, 1
  store i32 %112, i32* %1, align 4
  br label %70

113:                                              ; preds = %70
  %114 = getelementptr inbounds [1000 x i32], [1000 x i32]* %5, i64 0, i64 1
  %115 = load i32, i32* %114, align 4
  %116 = icmp eq i32 %115, 0
  br i1 %116, label %126, label %117

117:                                              ; preds = %113
  %118 = load i32, i32* %2, align 4
  %119 = sub nsw i32 %118, 1
  %120 = sext i32 %119 to i64
  %121 = getelementptr inbounds [1000 x i32], [1000 x i32]* %5, i64 0, i64 %120
  %122 = load i32, i32* %121, align 4
  %123 = getelementptr inbounds [1000 x i32], [1000 x i32]* %5, i64 0, i64 0
  %124 = load i32, i32* %123, align 16
  %125 = icmp eq i32 %122, %124
  br i1 %125, label %126, label %128

126:                                              ; preds = %117, %113
  %127 = call i32 (i8*, ...) @printf(i8* getelementptr inbounds ([3 x i8], [3 x i8]* @.str.1, i64 0, i64 0))
  br label %165

128:                                              ; preds = %117
  store i32 1, i32* %3, align 4
  br label %129

129:                                              ; preds = %161, %128
  %130 = load i32, i32* %3, align 4
  %131 = load i32, i32* %2, align 4
  %132 = icmp slt i32 %130, %131
  br i1 %132, label %133, label %164

133:                                              ; preds = %129
  %134 = load i32, i32* %3, align 4
  %135 = sext i32 %134 to i64
  %136 = getelementptr inbounds [1000 x i32], [1000 x i32]* %5, i64 0, i64 %135
  %137 = load i32, i32* %136, align 4
  %138 = getelementptr inbounds [1000 x i32], [1000 x i32]* %5, i64 0, i64 0
  %139 = load i32, i32* %138, align 16
  %140 = icmp ne i32 %137, %139
  br i1 %140, label %141, label %160

141:                                              ; preds = %133
  %142 = load i32, i32* %3, align 4
  %143 = sext i32 %142 to i64
  %144 = getelementptr inbounds [1000 x i32], [1000 x i32]* %5, i64 0, i64 %143
  %145 = load i32, i32* %144, align 4
  %146 = icmp eq i32 %145, 80
  br i1 %146, label %147, label %153

147:                                              ; preds = %141
  %148 = getelementptr inbounds [1000 x i32], [1000 x i32]* %5, i64 0, i64 0
  %149 = load i32, i32* %148, align 16
  %150 = icmp ne i32 %149, 81
  br i1 %150, label %151, label %153

151:                                              ; preds = %147
  %152 = call i32 (i8*, ...) @printf(i8* getelementptr inbounds ([4 x i8], [4 x i8]* @.str.2, i64 0, i64 0))
  br label %159

153:                                              ; preds = %147, %141
  %154 = load i32, i32* %3, align 4
  %155 = sext i32 %154 to i64
  %156 = getelementptr inbounds [1000 x i32], [1000 x i32]* %5, i64 0, i64 %155
  %157 = load i32, i32* %156, align 4
  %158 = call i32 (i8*, ...) @printf(i8* getelementptr inbounds ([3 x i8], [3 x i8]* @.str.3, i64 0, i64 0), i32 %157)
  br label %159

159:                                              ; preds = %153, %151
  br label %164

160:                                              ; preds = %133
  br label %161

161:                                              ; preds = %160
  %162 = load i32, i32* %3, align 4
  %163 = add nsw i32 %162, 1
  store i32 %163, i32* %3, align 4
  br label %129

164:                                              ; preds = %159, %129
  br label %165

165:                                              ; preds = %164, %126
  ret void
}

; Function Attrs: argmemonly nounwind willreturn
declare void @llvm.memset.p0i8.i64(i8* nocapture writeonly, i8, i64, i1 immarg) #1

declare dso_local i32 @__isoc99_scanf(i8*, ...) #2

; Function Attrs: nounwind readonly
declare dso_local i64 @strlen(i8*) #3

declare dso_local i32 @printf(i8*, ...) #2


!llvm.module.flags = !{!0}
!llvm.ident = !{!1}

!0 = !{i32 1, !"wchar_size", i32 4}
!1 = !{!"clang version 10.0.0-4ubuntu1 "}
